Certificate:
    Data:
        Version: 3 (0x2)
        Serial Number: 4096 (0x1000)
    Signature Algorithm: sha256WithRSAEncryption
        Issuer: O=nginx-proxy test suite, CN=www.nginx-proxy.tld
        Validity
            Not Before: Feb 17 23:20:54 2017 GMT
            Not After : Jul  5 23:20:54 2044 GMT
        Subject: CN=web.nginx-proxy
        Subject Public Key Info:
            Public Key Algorithm: rsaEncryption
                Public-Key: (2048 bit)
                Modulus:
                    00:b6:27:63:a5:c6:e8:f4:7a:94:0e:cc:a2:62:76:
                    6d:5d:33:6f:cf:19:fc:e7:e5:bb:0e:0e:d0:7c:4f:
                    73:4c:48:2b:17:d1:4d:d5:9f:42:08:73:84:54:8c:
                    86:d2:c5:da:59:01:3f:42:22:e0:36:f0:dc:ab:de:
                    0a:bd:26:2b:22:13:87:a6:1f:23:ef:0e:99:27:8b:
                    15:4a:1b:ef:93:c9:6b:91:de:a0:02:0c:62:bb:cc:
                    56:37:e8:25:92:c3:1f:f1:69:d8:7c:a8:33:e0:89:
                    ce:14:67:a0:39:77:88:91:e6:a3:07:97:90:22:88:
                    d0:79:18:63:fb:6f:7e:ee:2b:42:7e:23:f5:e7:da:
                    e9:ee:6a:fa:96:65:9f:e1:2b:15:49:c8:cd:2d:ce:
                    86:4f:2c:2a:67:79:bf:41:30:14:cc:f6:0f:14:74:
                    9e:b6:d3:d0:3b:f0:1b:b8:e8:19:2a:fd:d6:fd:dc:
                    4b:4e:65:7d:9b:bf:37:7e:2d:35:22:2e:74:90:ce:
                    41:35:3d:41:a0:99:db:97:1f:bf:3e:18:3c:48:fb:
                    da:df:c6:4e:4e:b9:67:b8:10:d5:a5:13:03:c4:b7:
                    65:e7:aa:f0:14:4b:d3:4d:ea:fe:8f:69:cf:50:21:
                    63:27:cf:9e:4c:67:15:7b:3f:3b:da:cb:17:80:61:
                    1e:25
                Exponent: 65537 (0x10001)
        X509v3 extensions:
            X509v3 Subject Alternative Name: 
                DNS:web.nginx-proxy
    Signature Algorithm: sha256WithRSAEncryption
         09:31:be:db:4e:b0:b6:68:da:ae:5b:16:51:29:fc:9f:61:b6:
         5a:2f:3c:35:ef:67:76:97:b0:34:4e:3b:b4:d6:88:19:4f:84:
         2e:73:d3:c0:3a:4c:41:54:6c:bb:67:89:67:ad:25:55:d7:d4:
         80:fe:a7:3f:3d:9e:f1:34:96:d8:da:5a:78:51:c0:63:f1:52:
         29:35:55:f4:7d:70:1c:d3:96:62:7f:64:86:81:52:27:c4:c6:
         10:13:c6:73:56:4d:32:d0:b3:c3:c8:2c:25:83:e4:2b:1d:d4:
         74:30:e5:85:af:2d:b6:a5:6b:fe:5d:d3:3c:00:58:94:f4:6a:
         f5:a6:1d:cf:f9:ed:d5:27:ed:13:24:b2:4f:2b:f3:b8:e4:af:
         0c:1d:fe:e0:6a:01:5e:a2:44:ff:3e:96:fa:6c:39:a3:51:37:
         f3:72:55:d8:2d:29:6e:de:95:b9:d8:e3:1e:65:a5:9c:0d:79:
         2d:39:ab:c7:ac:16:b6:a5:71:4b:35:a4:6c:72:47:1b:72:9c:
         67:58:c1:fc:f6:7f:a7:73:50:7b:d6:27:57:74:a1:31:38:a7:
         31:e3:b9:d4:c9:45:33:ec:ed:16:cf:c5:bd:d0:03:b1:45:3f:
         68:0d:91:5c:26:4e:37:05:74:ed:3e:75:5e:ca:5e:ee:e2:51:
         4b:da:08:99
-----BEGIN CERTIFICATE-----
MIIC8zCCAdugAwIBAgICEAAwDQYJKoZIhvcNAQELBQAwPzEfMB0GA1UECgwWbmdp
bngtcHJveHkgdGVzdCBzdWl0ZTEcMBoGA1UEAwwTd3d3Lm5naW54LXByb3h5LnRs
ZDAeFw0xNzAyMTcyMzIwNTRaFw00NDA3MDUyMzIwNTRaMBoxGDAWBgNVBAMMD3dl
Yi5uZ2lueC1wcm94eTCCASIwDQYJKoZIhvcNAQEBBQADggEPADCCAQoCggEBALYn
Y6XG6PR6lA7MomJ2bV0zb88Z/Ofluw4O0HxPc0xIKxfRTdWfQghzhFSMhtLF2lkB
P0Ii4Dbw3KveCr0mKyITh6YfI+8OmSeLFUob75PJa5HeoAIMYrvMVjfoJZLDH/Fp
2HyoM+CJzhRnoDl3iJHmoweXkCKI0HkYY/tvfu4rQn4j9efa6e5q+pZln+ErFUnI
zS3Ohk8sKmd5v0EwFMz2DxR0nrbT0DvwG7joGSr91v3cS05lfZu/N34tNSIudJDO
QTU9QaCZ25cfvz4YPEj72t/GTk65Z7gQ1aUTA8S3Zeeq8BRL003q/o9pz1AhYyfP
nkxnFXs/O9rLF4BhHiUCAwEAAaMeMBwwGgYDVR0RBBMwEYIPd2ViLm5naW54LXBy
b3h5MA0GCSqGSIb3DQEBCwUAA4IBAQAJMb7bTrC2aNquWxZRKfyfYbZaLzw172d2
l7A0Tju01ogZT4Quc9PAOkxBVGy7Z4lnrSVV19SA/qc/PZ7xNJbY2lp4UcBj8VIp
NVX0fXAc05Zif2SGgVInxMYQE8ZzVk0y0LPDyCwlg+QrHdR0MOWFry22pWv+XdM8
AFiU9Gr1ph3P+e3VJ+0TJLJPK/O45K8MHf7gagFeokT/Ppb6bDmjUTfzclXYLSlu
3pW52OMeZaWcDXktOavHrBa2pXFLNaRsckcbcpxnWMH89n+nc1B71idXdKExOKcx
47nUyUUz7O0Wz8W90AOxRT9oDZFcJk43BXTtPnVeyl7u4lFL2giZ
-----END CERTIFICATE-----
